; Function Attrs: nounwind uwtable
define hidden i32 @SDL_GetCameraProperties_REAL(ptr noundef %0) local_unnamed_addr #1 {
  %.not = icmp eq ptr %0, null
  br i1 %.not, label %2, label %4

2:                                                ; preds = %1
  %3 = tail call zeroext i1 (ptr, ...) @SDL_SetError_REAL(ptr noundef nonnull @.str, ptr noundef nonnull @.str.5) #11
  br label %ReleaseCamera.exit

4:                                                ; preds = %1
  %5 = getelementptr inbounds nuw i8, ptr %0, i64 20
  %6 = tail call i32 @SDL_AddAtomicInt_REAL(ptr noundef nonnull %5, i32 noundef 1) #11
  %7 = load ptr, ptr %0, align 8
  tail call void @SDL_LockMutex_REAL(ptr noundef %7) #11
  %8 = getelementptr inbounds nuw i8, ptr %0, i64 456
  %9 = load i32, ptr %8, align 8
  %10 = icmp eq i32 %9, 0
  br i1 %10, label %11, label %13

11:                                               ; preds = %4
  %12 = tail call i32 @SDL_CreateProperties_REAL() #11
  store i32 %12, ptr %8, align 8
  br label %13

13:                                               ; preds = %11, %4
  %14 = phi i32 [ %12, %11 ], [ %9, %4 ]
  %15 = load ptr, ptr %0, align 8
  tail call void @SDL_UnlockMutex_REAL(ptr noundef %15) #11
  %16 = tail call i32 @SDL_AddAtomicInt_REAL(ptr noundef nonnull %5, i32 noundef -1) #11
  %17 = icmp eq i32 %16, 1
  br i1 %17, label %18, label %ReleaseCamera.exit

18:                                               ; preds = %13
  %19 = load ptr, ptr getelementptr inbounds nuw (i8, ptr @camera_driver, i64 88), align 8
  tail call void @SDL_LockRWLockForWriting_REAL(ptr noundef %19) #11
  %20 = load ptr, ptr getelementptr inbounds nuw (i8, ptr @camera_driver, i64 96), align 8
  %21 = getelementptr inbounds nuw i8, ptr %0, i64 108
  %22 = load i32, ptr %21, align 4
  %23 = zext i32 %22 to i64
  %24 = inttoptr i64 %23 to ptr
  %25 = tail call zeroext i1 @SDL_RemoveFromHashTable(ptr noundef %20, ptr noundef %24) #11
  br i1 %25, label %26, label %28

26:                                               ; preds = %18
  %27 = tail call i32 @SDL_AddAtomicInt_REAL(ptr noundef nonnull getelementptr inbounds nuw (i8, ptr @camera_driver, i64 128), i32 noundef -1) #11
  br label %28

28:                                               ; preds = %26, %18
  %29 = load ptr, ptr getelementptr inbounds nuw (i8, ptr @camera_driver, i64 88), align 8
  tail call void @SDL_UnlockRWLock_REAL(ptr noundef %29) #11
  br label %ReleaseCamera.exit

ReleaseCamera.exit:                               ; preds = %28, %13, %2
  %.0 = phi i32 [ 0, %2 ], [ %14, %13 ], [ %14, %28 ]
  ret i32 %.0
}